; Function Attrs: nounwind uwtable
define hidden i32 @luaV_lessequal(ptr noundef %0, ptr noundef %1, ptr noundef %2) local_unnamed_addr #0 {
  %4 = getelementptr inbounds nuw i8, ptr %1, i64 8
  %5 = load i8, ptr %4, align 8, !tbaa !4
  %6 = and i8 %5, 15
  %7 = icmp eq i8 %6, 3
  br i1 %7, label %8, label %55

8:                                                ; preds = %3
  %9 = getelementptr inbounds nuw i8, ptr %2, i64 8
  %10 = load i8, ptr %9, align 8, !tbaa !4
  %11 = and i8 %10, 15
  %12 = icmp eq i8 %11, 3
  br i1 %12, label %13, label %55

13:                                               ; preds = %8
  %14 = icmp eq i8 %5, 3
  br i1 %14, label %15, label %34

15:                                               ; preds = %13
  %16 = load i64, ptr %1, align 8, !tbaa !8
  %17 = icmp eq i8 %10, 3
  br i1 %17, label %18, label %21

18:                                               ; preds = %15
  %19 = load i64, ptr %2, align 8, !tbaa !8
  %20 = icmp sle i64 %16, %19
  br label %LEnum.exit

21:                                               ; preds = %15
  %22 = load double, ptr %2, align 8, !tbaa !8
  %23 = add i64 %16, 9007199254740992
  %24 = icmp ult i64 %23, 18014398509481985
  br i1 %24, label %25, label %luaV_flttointeger.exit.i.i

25:                                               ; preds = %21
  %26 = sitofp i64 %16 to double
  %27 = fcmp oge double %22, %26
  br label %LEnum.exit

luaV_flttointeger.exit.i.i:                       ; preds = %21
  %28 = tail call double @llvm.floor.f64(double %22)
  %29 = fcmp ult double %28, 0xC3E0000000000000
  %30 = fcmp uge double %28, 0x43E0000000000000
  %or.cond.i.not.i.i = or i1 %29, %30
  %31 = fptosi double %28 to i64
  %32 = icmp sle i64 %16, %31
  %33 = fcmp ogt double %22, 0.000000e+00
  %.1.in.i.i = select i1 %or.cond.i.not.i.i, i1 %33, i1 %32
  br label %LEnum.exit

34:                                               ; preds = %13
  %35 = load double, ptr %1, align 8, !tbaa !8
  %36 = icmp eq i8 %10, 19
  br i1 %36, label %37, label %40

37:                                               ; preds = %34
  %38 = load double, ptr %2, align 8, !tbaa !8
  %39 = fcmp ole double %35, %38
  br label %LEnum.exit

40:                                               ; preds = %34
  %41 = load i64, ptr %2, align 8, !tbaa !8
  %42 = add i64 %41, 9007199254740992
  %43 = icmp ult i64 %42, 18014398509481985
  br i1 %43, label %44, label %luaV_flttointeger.exit.i13.i

44:                                               ; preds = %40
  %45 = sitofp i64 %41 to double
  %46 = fcmp ole double %35, %45
  br label %LEnum.exit

luaV_flttointeger.exit.i13.i:                     ; preds = %40
  %47 = tail call double @llvm.floor.f64(double %35)
  %48 = fcmp une double %35, %47
  %49 = fadd double %47, 1.000000e+00
  %.0.i.i.i = select i1 %48, double %49, double %47
  %50 = fcmp ult double %.0.i.i.i, 0xC3E0000000000000
  %51 = fcmp uge double %.0.i.i.i, 0x43E0000000000000
  %or.cond.i.not.i14.i = or i1 %50, %51
  %52 = fptosi double %.0.i.i.i to i64
  %53 = icmp sge i64 %41, %52
  %54 = fcmp olt double %35, 0.000000e+00
  %.1.in.i15.i = select i1 %or.cond.i.not.i14.i, i1 %54, i1 %53
  br label %LEnum.exit

LEnum.exit:                                       ; preds = %18, %25, %luaV_flttointeger.exit.i.i, %37, %44, %luaV_flttointeger.exit.i13.i
  %.1.in.i = phi i1 [ %20, %18 ], [ %39, %37 ], [ %27, %25 ], [ %.1.in.i.i, %luaV_flttointeger.exit.i.i ], [ %46, %44 ], [ %.1.in.i15.i, %luaV_flttointeger.exit.i13.i ]
  %.1.i = zext i1 %.1.in.i to i32
  br label %57

55:                                               ; preds = %8, %3
  %56 = tail call fastcc i32 @lessequalothers(ptr noundef %0, ptr noundef nonnull %1, ptr noundef %2)
  br label %57

57:                                               ; preds = %55, %LEnum.exit
  %.0 = phi i32 [ %.1.i, %LEnum.exit ], [ %56, %55 ]
  ret i32 %.0
}